target datalayout = "e-m:e-p270:32:32-p271:32:32-p272:64:64-i64:64-i128:128-f80:128-n8:16:32:64-S128"
target triple = "x86_64-pc-linux-gnu"

%"class.arrow_vendored::double_conversion::Vector" = type <{ ptr, i32, [4 x i8] }>
%"class.arrow_vendored::double_conversion::DiyFp" = type <{ i64, i32, [4 x i8] }>
%"class.arrow_vendored::double_conversion::Double" = type { i64 }

; Function Attrs: mustprogress nounwind uwtable
define linkonce_odr noundef double @_ZN14arrow_vendored17double_conversion7BitCastIdmEET_RKT0_(ptr noundef nonnull align 8 dereferenceable(8) %0) #3 comdat {
  %2 = alloca ptr, align 8
  %3 = alloca double, align 8
  store ptr %0, ptr %2, align 8, !tbaa !44
  call void @llvm.lifetime.start.p0(i64 8, ptr %3) #7
  %4 = load ptr, ptr %2, align 8, !tbaa !44
  call void @llvm.memmove.p0.p0.i64(ptr align 8 %3, ptr align 8 %4, i64 8, i1 false)
  %5 = load double, ptr %3, align 8, !tbaa !15
  call void @llvm.lifetime.end.p0(i64 8, ptr %3) #7
  ret double %5
}

; Function Attrs: mustprogress uwtable
define internal noundef double @_ZN14arrow_vendored17double_conversionL16uint64_to_doubleEm(i64 noundef %0) #0 {
  %2 = alloca i64, align 8
  store i64 %0, ptr %2, align 8, !tbaa !18
  %3 = call noundef double @_ZN14arrow_vendored17double_conversion7BitCastIdmEET_RKT0_(ptr noundef nonnull align 8 dereferenceable(8) %2)
  ret double %3
}

; Function Attrs: mustprogress nounwind uwtable
define linkonce_odr noundef i64 @_ZN14arrow_vendored17double_conversion7BitCastImdEET_RKT0_(ptr noundef nonnull align 8 dereferenceable(8) %0) #3 comdat {
  %2 = alloca ptr, align 8
  %3 = alloca i64, align 8
  store ptr %0, ptr %2, align 8, !tbaa !20
  call void @llvm.lifetime.start.p0(i64 8, ptr %3) #7
  %4 = load ptr, ptr %2, align 8, !tbaa !20
  call void @llvm.memmove.p0.p0.i64(ptr align 8 %3, ptr align 8 %4, i64 8, i1 false)
  %5 = load i64, ptr %3, align 8, !tbaa !18
  call void @llvm.lifetime.end.p0(i64 8, ptr %3) #7
  ret i64 %5
}

; Function Attrs: mustprogress uwtable
define linkonce_odr noundef zeroext i1 @_ZNK14arrow_vendored17double_conversion6Double10IsDenormalEv(ptr noundef nonnull align 8 dereferenceable(8) %0) #0 comdat align 2 {
  %2 = alloca ptr, align 8
  %3 = alloca i64, align 8
  store ptr %0, ptr %2, align 8, !tbaa !22
  %4 = load ptr, ptr %2, align 8
  call void @llvm.lifetime.start.p0(i64 8, ptr %3) #7
  %5 = call noundef i64 @_ZNK14arrow_vendored17double_conversion6Double8AsUint64Ev(ptr noundef nonnull align 8 dereferenceable(8) %4)
  store i64 %5, ptr %3, align 8, !tbaa !18
  %6 = load i64, ptr %3, align 8, !tbaa !18
  %7 = and i64 %6, 9218868437227405312
  %8 = icmp eq i64 %7, 0
  call void @llvm.lifetime.end.p0(i64 8, ptr %3) #7
  ret i1 %8
}

; Function Attrs: mustprogress nounwind uwtable
define linkonce_odr noundef i64 @_ZNK14arrow_vendored17double_conversion6Double8AsUint64Ev(ptr noundef nonnull align 8 dereferenceable(8) %0) #3 comdat align 2 {
  %2 = alloca ptr, align 8
  store ptr %0, ptr %2, align 8, !tbaa !22
  %3 = load ptr, ptr %2, align 8
  %4 = getelementptr inbounds nuw %"class.arrow_vendored::double_conversion::Double", ptr %3, i32 0, i32 0
  %5 = load i64, ptr %4, align 8, !tbaa !24
  ret i64 %5
}

; Function Attrs: mustprogress nounwind uwtable
define linkonce_odr noundef i32 @_ZNK14arrow_vendored17double_conversion6Double4SignEv(ptr noundef nonnull align 8 dereferenceable(8) %0) #3 comdat align 2 {
  %2 = alloca ptr, align 8
  %3 = alloca i64, align 8
  store ptr %0, ptr %2, align 8, !tbaa !22
  %4 = load ptr, ptr %2, align 8
  call void @llvm.lifetime.start.p0(i64 8, ptr %3) #7
  %5 = call noundef i64 @_ZNK14arrow_vendored17double_conversion6Double8AsUint64Ev(ptr noundef nonnull align 8 dereferenceable(8) %4)
  store i64 %5, ptr %3, align 8, !tbaa !18
  %6 = load i64, ptr %3, align 8, !tbaa !18
  %7 = and i64 %6, -9223372036854775808
  %8 = icmp eq i64 %7, 0
  %9 = select i1 %8, i32 1, i32 -1
  call void @llvm.lifetime.end.p0(i64 8, ptr %3) #7
  ret i32 %9
}

; Function Attrs: mustprogress uwtable
define linkonce_odr noundef double @_ZNK14arrow_vendored17double_conversion6Double5valueEv(ptr noundef nonnull align 8 dereferenceable(8) %0) #0 comdat align 2 {
  %2 = alloca ptr, align 8
  store ptr %0, ptr %2, align 8, !tbaa !22
  %3 = load ptr, ptr %2, align 8
  %4 = getelementptr inbounds nuw %"class.arrow_vendored::double_conversion::Double", ptr %3, i32 0, i32 0
  %5 = load i64, ptr %4, align 8, !tbaa !24
  %6 = call noundef double @_ZN14arrow_vendored17double_conversionL16uint64_to_doubleEm(i64 noundef %5)
  ret double %6
}

; Function Attrs: mustprogress nounwind uwtable
define linkonce_odr void @_ZN14arrow_vendored17double_conversion6DoubleC2Em(ptr noundef nonnull align 8 dereferenceable(8) %0, i64 noundef %1) unnamed_addr #3 comdat align 2 {
  %3 = alloca ptr, align 8
  %4 = alloca i64, align 8
  store ptr %0, ptr %3, align 8, !tbaa !22
  store i64 %1, ptr %4, align 8, !tbaa !18
  %5 = load ptr, ptr %3, align 8
  %6 = getelementptr inbounds nuw %"class.arrow_vendored::double_conversion::Double", ptr %5, i32 0, i32 0
  %7 = load i64, ptr %4, align 8, !tbaa !18
  store i64 %7, ptr %6, align 8, !tbaa !24
  ret void
}

; Function Attrs: mustprogress nounwind uwtable
define linkonce_odr void @_ZN14arrow_vendored17double_conversion5DiyFpC2Emi(ptr noundef nonnull align 8 dereferenceable(12) %0, i64 noundef %1, i32 noundef %2) unnamed_addr #3 comdat align 2 {
  %4 = alloca ptr, align 8
  %5 = alloca i64, align 8
  %6 = alloca i32, align 4
  store ptr %0, ptr %4, align 8, !tbaa !35
  store i64 %1, ptr %5, align 8, !tbaa !18
  store i32 %2, ptr %6, align 4, !tbaa !3
  %7 = load ptr, ptr %4, align 8
  %8 = getelementptr inbounds nuw %"class.arrow_vendored::double_conversion::DiyFp", ptr %7, i32 0, i32 0
  %9 = load i64, ptr %5, align 8, !tbaa !18
  store i64 %9, ptr %8, align 8, !tbaa !37
  %10 = getelementptr inbounds nuw %"class.arrow_vendored::double_conversion::DiyFp", ptr %7, i32 0, i32 1
  %11 = load i32, ptr %6, align 4, !tbaa !3
  store i32 %11, ptr %10, align 8, !tbaa !39
  ret void
}

; Function Attrs: mustprogress uwtable
define linkonce_odr noundef i32 @_ZNK14arrow_vendored17double_conversion6Double8ExponentEv(ptr noundef nonnull align 8 dereferenceable(8) %0) #0 comdat align 2 {
  %2 = alloca i32, align 4
  %3 = alloca ptr, align 8
  %4 = alloca i64, align 8
  %5 = alloca i32, align 4
  store ptr %0, ptr %3, align 8, !tbaa !22
  %6 = load ptr, ptr %3, align 8
  %7 = call noundef zeroext i1 @_ZNK14arrow_vendored17double_conversion6Double10IsDenormalEv(ptr noundef nonnull align 8 dereferenceable(8) %6)
  br i1 %7, label %8, label %9

8:                                                ; preds = %1
  store i32 -1074, ptr %2, align 4
  br label %17

9:                                                ; preds = %1
  call void @llvm.lifetime.start.p0(i64 8, ptr %4) #7
  %10 = call noundef i64 @_ZNK14arrow_vendored17double_conversion6Double8AsUint64Ev(ptr noundef nonnull align 8 dereferenceable(8) %6)
  store i64 %10, ptr %4, align 8, !tbaa !18
  call void @llvm.lifetime.start.p0(i64 4, ptr %5) #7
  %11 = load i64, ptr %4, align 8, !tbaa !18
  %12 = and i64 %11, 9218868437227405312
  %13 = lshr i64 %12, 52
  %14 = trunc i64 %13 to i32
  store i32 %14, ptr %5, align 4, !tbaa !3
  %15 = load i32, ptr %5, align 4, !tbaa !3
  %16 = sub nsw i32 %15, 1075
  store i32 %16, ptr %2, align 4
  call void @llvm.lifetime.end.p0(i64 4, ptr %5) #7
  call void @llvm.lifetime.end.p0(i64 8, ptr %4) #7
  br label %17

17:                                               ; preds = %9, %8
  %18 = load i32, ptr %2, align 4
  ret i32 %18
}

; Function Attrs: mustprogress uwtable
define internal noundef i64 @_ZN14arrow_vendored17double_conversionL16double_to_uint64Ed(double noundef %0) #0 {
  %2 = alloca double, align 8
  store double %0, ptr %2, align 8, !tbaa !15
  %3 = call noundef i64 @_ZN14arrow_vendored17double_conversion7BitCastImdEET_RKT0_(ptr noundef nonnull align 8 dereferenceable(8) %2)
  ret i64 %3
}

; Function Attrs: mustprogress uwtable
define linkonce_odr noundef i64 @_ZNK14arrow_vendored17double_conversion6Double11SignificandEv(ptr noundef nonnull align 8 dereferenceable(8) %0) #0 comdat align 2 {
  %2 = alloca i64, align 8
  %3 = alloca ptr, align 8
  %4 = alloca i64, align 8
  %5 = alloca i64, align 8
  %6 = alloca i32, align 4
  store ptr %0, ptr %3, align 8, !tbaa !22
  %7 = load ptr, ptr %3, align 8
  call void @llvm.lifetime.start.p0(i64 8, ptr %4) #7
  %8 = call noundef i64 @_ZNK14arrow_vendored17double_conversion6Double8AsUint64Ev(ptr noundef nonnull align 8 dereferenceable(8) %7)
  store i64 %8, ptr %4, align 8, !tbaa !18
  call void @llvm.lifetime.start.p0(i64 8, ptr %5) #7
  %9 = load i64, ptr %4, align 8, !tbaa !18
  %10 = and i64 %9, 4503599627370495
  store i64 %10, ptr %5, align 8, !tbaa !18
  %11 = call noundef zeroext i1 @_ZNK14arrow_vendored17double_conversion6Double10IsDenormalEv(ptr noundef nonnull align 8 dereferenceable(8) %7)
  br i1 %11, label %15, label %12

12:                                               ; preds = %1
  %13 = load i64, ptr %5, align 8, !tbaa !18
  %14 = add i64 %13, 4503599627370496
  store i64 %14, ptr %2, align 8
  store i32 1, ptr %6, align 4
  br label %17

15:                                               ; preds = %1
  %16 = load i64, ptr %5, align 8, !tbaa !18
  store i64 %16, ptr %2, align 8
  store i32 1, ptr %6, align 4
  br label %17

17:                                               ; preds = %15, %12
  call void @llvm.lifetime.end.p0(i64 8, ptr %5) #7
  call void @llvm.lifetime.end.p0(i64 8, ptr %4) #7
  %18 = load i64, ptr %2, align 8
  ret i64 %18
}

; Function Attrs: mustprogress uwtable
define linkonce_odr noundef double @_ZNK14arrow_vendored17double_conversion6Double10NextDoubleEv(ptr noundef nonnull align 8 dereferenceable(8) %0) #0 comdat align 2 {
  %2 = alloca double, align 8
  %3 = alloca ptr, align 8
  %4 = alloca %"class.arrow_vendored::double_conversion::Double", align 8
  %5 = alloca %"class.arrow_vendored::double_conversion::Double", align 8
  %6 = alloca %"class.arrow_vendored::double_conversion::Double", align 8
  store ptr %0, ptr %3, align 8, !tbaa !22
  %7 = load ptr, ptr %3, align 8
  %8 = getelementptr inbounds nuw %"class.arrow_vendored::double_conversion::Double", ptr %7, i32 0, i32 0
  %9 = load i64, ptr %8, align 8, !tbaa !24
  %10 = icmp eq i64 %9, 9218868437227405312
  br i1 %10, label %11, label %13

11:                                               ; preds = %1
  call void @llvm.lifetime.start.p0(i64 8, ptr %4) #7
  call void @_ZN14arrow_vendored17double_conversion6DoubleC2Em(ptr noundef nonnull align 8 dereferenceable(8) %4, i64 noundef 9218868437227405312)
  %12 = call noundef double @_ZNK14arrow_vendored17double_conversion6Double5valueEv(ptr noundef nonnull align 8 dereferenceable(8) %4)
  store double %12, ptr %2, align 8
  call void @llvm.lifetime.end.p0(i64 8, ptr %4) #7
  br label %33

13:                                               ; preds = %1
  %14 = call noundef i32 @_ZNK14arrow_vendored17double_conversion6Double4SignEv(ptr noundef nonnull align 8 dereferenceable(8) %7)
  %15 = icmp slt i32 %14, 0
  br i1 %15, label %16, label %20

16:                                               ; preds = %13
  %17 = call noundef i64 @_ZNK14arrow_vendored17double_conversion6Double11SignificandEv(ptr noundef nonnull align 8 dereferenceable(8) %7)
  %18 = icmp eq i64 %17, 0
  br i1 %18, label %19, label %20

19:                                               ; preds = %16
  store double 0.000000e+00, ptr %2, align 8
  br label %33

20:                                               ; preds = %16, %13
  %21 = call noundef i32 @_ZNK14arrow_vendored17double_conversion6Double4SignEv(ptr noundef nonnull align 8 dereferenceable(8) %7)
  %22 = icmp slt i32 %21, 0
  br i1 %22, label %23, label %28

23:                                               ; preds = %20
  call void @llvm.lifetime.start.p0(i64 8, ptr %5) #7
  %24 = getelementptr inbounds nuw %"class.arrow_vendored::double_conversion::Double", ptr %7, i32 0, i32 0
  %25 = load i64, ptr %24, align 8, !tbaa !24
  %26 = sub i64 %25, 1
  call void @_ZN14arrow_vendored17double_conversion6DoubleC2Em(ptr noundef nonnull align 8 dereferenceable(8) %5, i64 noundef %26)
  %27 = call noundef double @_ZNK14arrow_vendored17double_conversion6Double5valueEv(ptr noundef nonnull align 8 dereferenceable(8) %5)
  store double %27, ptr %2, align 8
  call void @llvm.lifetime.end.p0(i64 8, ptr %5) #7
  br label %33

28:                                               ; preds = %20
  call void @llvm.lifetime.start.p0(i64 8, ptr %6) #7
  %29 = getelementptr inbounds nuw %"class.arrow_vendored::double_conversion::Double", ptr %7, i32 0, i32 0
  %30 = load i64, ptr %29, align 8, !tbaa !24
  %31 = add i64 %30, 1
  call void @_ZN14arrow_vendored17double_conversion6DoubleC2Em(ptr noundef nonnull align 8 dereferenceable(8) %6, i64 noundef %31)
  %32 = call noundef double @_ZNK14arrow_vendored17double_conversion6Double5valueEv(ptr noundef nonnull align 8 dereferenceable(8) %6)
  store double %32, ptr %2, align 8
  call void @llvm.lifetime.end.p0(i64 8, ptr %6) #7
  br label %33

33:                                               ; preds = %28, %23, %19, %11
  %34 = load double, ptr %2, align 8
  ret double %34
}

; Function Attrs: mustprogress uwtable
define linkonce_odr { i64, i32 } @_ZNK14arrow_vendored17double_conversion6Double13UpperBoundaryEv(ptr noundef nonnull align 8 dereferenceable(8) %0) #0 comdat align 2 {
  %2 = alloca %"class.arrow_vendored::double_conversion::DiyFp", align 8
  %3 = alloca ptr, align 8
  store ptr %0, ptr %3, align 8, !tbaa !22
  %4 = load ptr, ptr %3, align 8
  %5 = call noundef i64 @_ZNK14arrow_vendored17double_conversion6Double11SignificandEv(ptr noundef nonnull align 8 dereferenceable(8) %4)
  %6 = mul i64 %5, 2
  %7 = add i64 %6, 1
  %8 = call noundef i32 @_ZNK14arrow_vendored17double_conversion6Double8ExponentEv(ptr noundef nonnull align 8 dereferenceable(8) %4)
  %9 = sub nsw i32 %8, 1
  call void @_ZN14arrow_vendored17double_conversion5DiyFpC2Emi(ptr noundef nonnull align 8 dereferenceable(12) %2, i64 noundef %7, i32 noundef %9)
  %10 = load { i64, i32 }, ptr %2, align 8
  ret { i64, i32 } %10
}

; Function Attrs: mustprogress uwtable
define linkonce_odr void @_ZN14arrow_vendored17double_conversion6DoubleC2Ed(ptr noundef nonnull align 8 dereferenceable(8) %0, double noundef %1) unnamed_addr #0 comdat align 2 {
  %3 = alloca ptr, align 8
  %4 = alloca double, align 8
  store ptr %0, ptr %3, align 8, !tbaa !22
  store double %1, ptr %4, align 8, !tbaa !15
  %5 = load ptr, ptr %3, align 8
  %6 = getelementptr inbounds nuw %"class.arrow_vendored::double_conversion::Double", ptr %5, i32 0, i32 0
  %7 = load double, ptr %4, align 8, !tbaa !15
  %8 = call noundef i64 @_ZN14arrow_vendored17double_conversionL16double_to_uint64Ed(double noundef %7)
  store i64 %8, ptr %6, align 8, !tbaa !24
  ret void
}

; Function Attrs: mustprogress uwtable
define noundef double @_ZN14arrow_vendored17double_conversion13StrtodTrimmedENS0_6VectorIKcEEi(ptr %0, i32 %1, i32 noundef %2) #0 {
  %4 = alloca double, align 8
  %5 = alloca %"class.arrow_vendored::double_conversion::Vector", align 8
  %6 = alloca i32, align 4
  %7 = alloca double, align 8
  %8 = alloca i8, align 1
  %9 = alloca %"class.arrow_vendored::double_conversion::Vector", align 8
  %10 = alloca i32, align 4
  %11 = alloca %"class.arrow_vendored::double_conversion::DiyFp", align 8
  %12 = alloca %"class.arrow_vendored::double_conversion::Double", align 8
  %13 = alloca { i64, i32 }, align 8
  %14 = alloca i32, align 4
  %15 = alloca %"class.arrow_vendored::double_conversion::Vector", align 8
  %16 = alloca %"class.arrow_vendored::double_conversion::DiyFp", align 8
  %17 = alloca %"class.arrow_vendored::double_conversion::Double", align 8
  %18 = alloca %"class.arrow_vendored::double_conversion::Double", align 8
  %19 = alloca %"class.arrow_vendored::double_conversion::Double", align 8
  %20 = getelementptr inbounds nuw { ptr, i32 }, ptr %5, i32 0, i32 0
  store ptr %0, ptr %20, align 8
  %21 = getelementptr inbounds nuw { ptr, i32 }, ptr %5, i32 0, i32 1
  store i32 %1, ptr %21, align 8
  store i32 %2, ptr %6, align 4, !tbaa !3
  call void @llvm.lifetime.start.p0(i64 8, ptr %7) #7
  call void @llvm.lifetime.start.p0(i64 1, ptr %8) #7
  call void @llvm.memcpy.p0.p0.i64(ptr align 8 %9, ptr align 8 %5, i64 16, i1 false), !tbaa.struct !7
  %22 = load i32, ptr %6, align 4, !tbaa !3
  %23 = getelementptr inbounds nuw { ptr, i32 }, ptr %9, i32 0, i32 0
  %24 = load ptr, ptr %23, align 8
  %25 = getelementptr inbounds nuw { ptr, i32 }, ptr %9, i32 0, i32 1
  %26 = load i32, ptr %25, align 8
  %27 = call noundef zeroext i1 @_ZN14arrow_vendored17double_conversionL12ComputeGuessENS0_6VectorIKcEEiPd(ptr %24, i32 %26, i32 noundef %22, ptr noundef %7)
  %28 = zext i1 %27 to i8
  store i8 %28, ptr %8, align 1, !tbaa !11
  %29 = load i8, ptr %8, align 1, !tbaa !11, !range !13, !noundef !14
  %30 = trunc i8 %29 to i1
  br i1 %30, label %31, label %33

31:                                               ; preds = %3
  %32 = load double, ptr %7, align 8, !tbaa !15
  store double %32, ptr %4, align 8
  store i32 1, ptr %10, align 4
  br label %67

33:                                               ; preds = %3
  call void @llvm.lifetime.start.p0(i64 16, ptr %11) #7
  call void @llvm.lifetime.start.p0(i64 8, ptr %12) #7
  %34 = load double, ptr %7, align 8, !tbaa !15
  call void @_ZN14arrow_vendored17double_conversion6DoubleC2Ed(ptr noundef nonnull align 8 dereferenceable(8) %12, double noundef %34)
  %35 = call { i64, i32 } @_ZNK14arrow_vendored17double_conversion6Double13UpperBoundaryEv(ptr noundef nonnull align 8 dereferenceable(8) %12)
  store { i64, i32 } %35, ptr %13, align 8
  call void @llvm.memcpy.p0.p0.i64(ptr align 8 %11, ptr align 8 %13, i64 12, i1 false)
  call void @llvm.lifetime.end.p0(i64 8, ptr %12) #7
  call void @llvm.lifetime.start.p0(i64 4, ptr %14) #7
  call void @llvm.memcpy.p0.p0.i64(ptr align 8 %15, ptr align 8 %5, i64 16, i1 false), !tbaa.struct !7
  %36 = load i32, ptr %6, align 4, !tbaa !3
  call void @llvm.memcpy.p0.p0.i64(ptr align 8 %16, ptr align 8 %11, i64 16, i1 false), !tbaa.struct !17
  %37 = getelementptr inbounds nuw { ptr, i32 }, ptr %15, i32 0, i32 0
  %38 = load ptr, ptr %37, align 8
  %39 = getelementptr inbounds nuw { ptr, i32 }, ptr %15, i32 0, i32 1
  %40 = load i32, ptr %39, align 8
  %41 = getelementptr inbounds nuw { i64, i32 }, ptr %16, i32 0, i32 0
  %42 = load i64, ptr %41, align 8
  %43 = getelementptr inbounds nuw { i64, i32 }, ptr %16, i32 0, i32 1
  %44 = load i32, ptr %43, align 8
  %45 = call noundef i32 @_ZN14arrow_vendored17double_conversionL22CompareBufferWithDiyFpENS0_6VectorIKcEEiNS0_5DiyFpE(ptr %38, i32 %40, i32 noundef %36, i64 %42, i32 %44)
  store i32 %45, ptr %14, align 4, !tbaa !3
  %46 = load i32, ptr %14, align 4, !tbaa !3
  %47 = icmp slt i32 %46, 0
  br i1 %47, label %48, label %50

48:                                               ; preds = %33
  %49 = load double, ptr %7, align 8, !tbaa !15
  store double %49, ptr %4, align 8
  store i32 1, ptr %10, align 4
  br label %66

50:                                               ; preds = %33
  %51 = load i32, ptr %14, align 4, !tbaa !3
  %52 = icmp sgt i32 %51, 0
  br i1 %52, label %53, label %56

53:                                               ; preds = %50
  call void @llvm.lifetime.start.p0(i64 8, ptr %17) #7
  %54 = load double, ptr %7, align 8, !tbaa !15
  call void @_ZN14arrow_vendored17double_conversion6DoubleC2Ed(ptr noundef nonnull align 8 dereferenceable(8) %17, double noundef %54)
  %55 = call noundef double @_ZNK14arrow_vendored17double_conversion6Double10NextDoubleEv(ptr noundef nonnull align 8 dereferenceable(8) %17)
  store double %55, ptr %4, align 8
  call void @llvm.lifetime.end.p0(i64 8, ptr %17) #7
  store i32 1, ptr %10, align 4
  br label %66

56:                                               ; preds = %50
  call void @llvm.lifetime.start.p0(i64 8, ptr %18) #7
  %57 = load double, ptr %7, align 8, !tbaa !15
  call void @_ZN14arrow_vendored17double_conversion6DoubleC2Ed(ptr noundef nonnull align 8 dereferenceable(8) %18, double noundef %57)
  %58 = call noundef i64 @_ZNK14arrow_vendored17double_conversion6Double11SignificandEv(ptr noundef nonnull align 8 dereferenceable(8) %18)
  %59 = and i64 %58, 1
  %60 = icmp eq i64 %59, 0
  call void @llvm.lifetime.end.p0(i64 8, ptr %18) #7
  br i1 %60, label %61, label %63

61:                                               ; preds = %56
  %62 = load double, ptr %7, align 8, !tbaa !15
  store double %62, ptr %4, align 8
  store i32 1, ptr %10, align 4
  br label %66

63:                                               ; preds = %56
  call void @llvm.lifetime.start.p0(i64 8, ptr %19) #7
  %64 = load double, ptr %7, align 8, !tbaa !15
  call void @_ZN14arrow_vendored17double_conversion6DoubleC2Ed(ptr noundef nonnull align 8 dereferenceable(8) %19, double noundef %64)
  %65 = call noundef double @_ZNK14arrow_vendored17double_conversion6Double10NextDoubleEv(ptr noundef nonnull align 8 dereferenceable(8) %19)
  store double %65, ptr %4, align 8
  call void @llvm.lifetime.end.p0(i64 8, ptr %19) #7
  store i32 1, ptr %10, align 4
  br label %66

66:                                               ; preds = %63, %61, %53, %48
  call void @llvm.lifetime.end.p0(i64 4, ptr %14) #7
  call void @llvm.lifetime.end.p0(i64 16, ptr %11) #7
  br label %67

67:                                               ; preds = %66, %31
  call void @llvm.lifetime.end.p0(i64 1, ptr %8) #7
  call void @llvm.lifetime.end.p0(i64 8, ptr %7) #7
  %68 = load double, ptr %4, align 8
  ret double %68
}